target datalayout = "e-m:e-p270:32:32-p271:32:32-p272:64:64-i64:64-i128:128-f80:128-n8:16:32:64-S128"
target triple = "x86_64-pc-linux-gnu"

%struct.asn1_object_st = type { ptr, ptr, i32, i32, ptr, i32 }

; Function Attrs: nounwind uwtable
define ptr @ASN1_OBJECT_create(i32 noundef %0, ptr noundef %1, i32 noundef %2, ptr noundef %3, ptr noundef %4) #0 {
  %6 = alloca i32, align 4
  %7 = alloca ptr, align 8
  %8 = alloca i32, align 4
  %9 = alloca ptr, align 8
  %10 = alloca ptr, align 8
  %11 = alloca %struct.asn1_object_st, align 8
  store i32 %0, ptr %6, align 4, !tbaa !16
  store ptr %1, ptr %7, align 8, !tbaa !10
  store i32 %2, ptr %8, align 4, !tbaa !16
  store ptr %3, ptr %9, align 8, !tbaa !10
  store ptr %4, ptr %10, align 8, !tbaa !10
  call void @llvm.lifetime.start.p0(i64 40, ptr %11) #5
  %12 = load ptr, ptr %9, align 8, !tbaa !10
  %13 = getelementptr inbounds nuw %struct.asn1_object_st, ptr %11, i32 0, i32 0
  store ptr %12, ptr %13, align 8, !tbaa !32
  %14 = load ptr, ptr %10, align 8, !tbaa !10
  %15 = getelementptr inbounds nuw %struct.asn1_object_st, ptr %11, i32 0, i32 1
  store ptr %14, ptr %15, align 8, !tbaa !33
  %16 = load ptr, ptr %7, align 8, !tbaa !10
  %17 = getelementptr inbounds nuw %struct.asn1_object_st, ptr %11, i32 0, i32 4
  store ptr %16, ptr %17, align 8, !tbaa !12
  %18 = load i32, ptr %6, align 4, !tbaa !16
  %19 = getelementptr inbounds nuw %struct.asn1_object_st, ptr %11, i32 0, i32 2
  store i32 %18, ptr %19, align 8, !tbaa !29
  %20 = load i32, ptr %8, align 4, !tbaa !16
  %21 = getelementptr inbounds nuw %struct.asn1_object_st, ptr %11, i32 0, i32 3
  store i32 %20, ptr %21, align 4, !tbaa !15
  %22 = getelementptr inbounds nuw %struct.asn1_object_st, ptr %11, i32 0, i32 5
  store i32 13, ptr %22, align 8, !tbaa !30
  %23 = call ptr @OBJ_dup(ptr noundef %11)
  call void @llvm.lifetime.end.p0(i64 40, ptr %11) #5
  ret ptr %23
}