; Function Attrs: nounwind uwtable
define ptr @ASN1_OBJECT_create(i32 noundef %0, ptr noundef %1, i32 noundef %2, ptr noundef %3, ptr noundef %4) local_unnamed_addr #0 {
  %6 = alloca %struct.asn1_object_st, align 8
  call void @llvm.lifetime.start.p0(i64 40, ptr nonnull %6) #6
  store ptr %3, ptr %6, align 8, !tbaa !23
  %7 = getelementptr inbounds nuw i8, ptr %6, i64 8
  store ptr %4, ptr %7, align 8, !tbaa !24
  %8 = getelementptr inbounds nuw i8, ptr %6, i64 24
  store ptr %1, ptr %8, align 8, !tbaa !3
  %9 = getelementptr inbounds nuw i8, ptr %6, i64 16
  store i32 %0, ptr %9, align 8, !tbaa !19
  %10 = getelementptr inbounds nuw i8, ptr %6, i64 20
  store i32 %2, ptr %10, align 4, !tbaa !10
  %11 = getelementptr inbounds nuw i8, ptr %6, i64 32
  store i32 13, ptr %11, align 8, !tbaa !20
  %12 = call ptr @OBJ_dup(ptr noundef nonnull %6) #6
  call void @llvm.lifetime.end.p0(i64 40, ptr nonnull %6) #6
  ret ptr %12
}